target datalayout = "e-m:e-p270:32:32-p271:32:32-p272:64:64-i64:64-i128:128-f80:128-n8:16:32:64-S128"
target triple = "x86_64-pc-linux-gnu"

%struct.poly1305_state_internal_t = type { [3 x i64], [3 x i64], [2 x i64], i64, [16 x i8], i8 }

; Function Attrs: alwaysinline nounwind
define internal ptr @memcpy.inline(ptr noalias nonnull %0, ptr noalias nonnull %1, i64 %2) #4 {
  %4 = alloca ptr, align 8
  %5 = alloca ptr, align 8
  %6 = alloca i64, align 8
  store ptr %0, ptr %4, align 8
  store ptr %1, ptr %5, align 8
  store i64 %2, ptr %6, align 8
  %7 = load ptr, ptr %4, align 8
  %8 = load ptr, ptr %5, align 8
  %9 = load i64, ptr %6, align 8
  %10 = load ptr, ptr %4, align 8
  %11 = call i64 @llvm.objectsize.i64.p0(ptr %10, i1 false, i1 true, i1 true)
  %12 = call ptr @__memcpy_chk(ptr noundef %7, ptr noundef %8, i64 noundef %9, i64 noundef %11) #8
  ret ptr %12
}

; Function Attrs: inlinehint nounwind ssp uwtable
define internal void @store64_le(ptr noundef %0, i64 noundef %1) #3 {
  %3 = alloca ptr, align 8
  %4 = alloca i64, align 8
  store ptr %0, ptr %3, align 8
  store i64 %1, ptr %4, align 8
  %5 = load ptr, ptr %3, align 8
  %6 = call ptr @memcpy.inline(ptr noundef %5, ptr noundef %4, i64 noundef 8) #8
  ret void
}

; Function Attrs: noinline nounwind ssp uwtable
define internal void @poly1305_finish(ptr noundef %0, ptr noundef %1) #2 {
  %3 = alloca ptr, align 8
  %4 = alloca ptr, align 8
  %5 = alloca i64, align 8
  %6 = alloca i64, align 8
  %7 = alloca i64, align 8
  %8 = alloca i64, align 8
  %9 = alloca i64, align 8
  %10 = alloca i64, align 8
  %11 = alloca i64, align 8
  %12 = alloca i64, align 8
  %13 = alloca i64, align 8
  %14 = alloca i64, align 8
  %15 = alloca i64, align 8
  store ptr %0, ptr %3, align 8
  store ptr %1, ptr %4, align 8
  call void @llvm.lifetime.start.p0(i64 8, ptr %5) #8
  call void @llvm.lifetime.start.p0(i64 8, ptr %6) #8
  call void @llvm.lifetime.start.p0(i64 8, ptr %7) #8
  call void @llvm.lifetime.start.p0(i64 8, ptr %8) #8
  call void @llvm.lifetime.start.p0(i64 8, ptr %9) #8
  call void @llvm.lifetime.start.p0(i64 8, ptr %10) #8
  call void @llvm.lifetime.start.p0(i64 8, ptr %11) #8
  call void @llvm.lifetime.start.p0(i64 8, ptr %12) #8
  call void @llvm.lifetime.start.p0(i64 8, ptr %13) #8
  call void @llvm.lifetime.start.p0(i64 8, ptr %14) #8
  %16 = load ptr, ptr %3, align 8
  %17 = getelementptr inbounds nuw %struct.poly1305_state_internal_t, ptr %16, i32 0, i32 3
  %18 = load i64, ptr %17, align 8
  %19 = icmp ne i64 %18, 0
  br i1 %19, label %20, label %48

20:                                               ; preds = %2
  call void @llvm.lifetime.start.p0(i64 8, ptr %15) #8
  %21 = load ptr, ptr %3, align 8
  %22 = getelementptr inbounds nuw %struct.poly1305_state_internal_t, ptr %21, i32 0, i32 3
  %23 = load i64, ptr %22, align 8
  store i64 %23, ptr %15, align 8
  %24 = load ptr, ptr %3, align 8
  %25 = getelementptr inbounds nuw %struct.poly1305_state_internal_t, ptr %24, i32 0, i32 4
  %26 = load i64, ptr %15, align 8
  %27 = getelementptr [16 x i8], ptr %25, i64 0, i64 %26
  store i8 1, ptr %27, align 1
  %28 = load i64, ptr %15, align 8
  %29 = add i64 %28, 1
  store i64 %29, ptr %15, align 8
  br label %30

30:                                               ; preds = %38, %20
  %31 = load i64, ptr %15, align 8
  %32 = icmp ult i64 %31, 16
  br i1 %32, label %33, label %41

33:                                               ; preds = %30
  %34 = load ptr, ptr %3, align 8
  %35 = getelementptr inbounds nuw %struct.poly1305_state_internal_t, ptr %34, i32 0, i32 4
  %36 = load i64, ptr %15, align 8
  %37 = getelementptr [16 x i8], ptr %35, i64 0, i64 %36
  store i8 0, ptr %37, align 1
  br label %38

38:                                               ; preds = %33
  %39 = load i64, ptr %15, align 8
  %40 = add i64 %39, 1
  store i64 %40, ptr %15, align 8
  br label %30, !llvm.loop !7

41:                                               ; preds = %30
  %42 = load ptr, ptr %3, align 8
  %43 = getelementptr inbounds nuw %struct.poly1305_state_internal_t, ptr %42, i32 0, i32 5
  store i8 1, ptr %43, align 8
  %44 = load ptr, ptr %3, align 8
  %45 = load ptr, ptr %3, align 8
  %46 = getelementptr inbounds nuw %struct.poly1305_state_internal_t, ptr %45, i32 0, i32 4
  %47 = getelementptr inbounds [16 x i8], ptr %46, i64 0, i64 0
  call void @poly1305_blocks(ptr noundef %44, ptr noundef %47, i64 noundef 16)
  call void @llvm.lifetime.end.p0(i64 8, ptr %15) #8
  br label %48

48:                                               ; preds = %41, %2
  %49 = load ptr, ptr %3, align 8
  %50 = getelementptr inbounds nuw %struct.poly1305_state_internal_t, ptr %49, i32 0, i32 1
  %51 = getelementptr [3 x i64], ptr %50, i64 0, i64 0
  %52 = load i64, ptr %51, align 8
  store i64 %52, ptr %5, align 8
  %53 = load ptr, ptr %3, align 8
  %54 = getelementptr inbounds nuw %struct.poly1305_state_internal_t, ptr %53, i32 0, i32 1
  %55 = getelementptr [3 x i64], ptr %54, i64 0, i64 1
  %56 = load i64, ptr %55, align 8
  store i64 %56, ptr %6, align 8
  %57 = load ptr, ptr %3, align 8
  %58 = getelementptr inbounds nuw %struct.poly1305_state_internal_t, ptr %57, i32 0, i32 1
  %59 = getelementptr [3 x i64], ptr %58, i64 0, i64 2
  %60 = load i64, ptr %59, align 8
  store i64 %60, ptr %7, align 8
  %61 = load i64, ptr %6, align 8
  %62 = lshr i64 %61, 44
  store i64 %62, ptr %8, align 8
  %63 = load i64, ptr %6, align 8
  %64 = and i64 %63, 17592186044415
  store i64 %64, ptr %6, align 8
  %65 = load i64, ptr %8, align 8
  %66 = load i64, ptr %7, align 8
  %67 = add i64 %66, %65
  store i64 %67, ptr %7, align 8
  %68 = load i64, ptr %7, align 8
  %69 = lshr i64 %68, 42
  store i64 %69, ptr %8, align 8
  %70 = load i64, ptr %7, align 8
  %71 = and i64 %70, 4398046511103
  store i64 %71, ptr %7, align 8
  %72 = load i64, ptr %8, align 8
  %73 = mul i64 %72, 5
  %74 = load i64, ptr %5, align 8
  %75 = add i64 %74, %73
  store i64 %75, ptr %5, align 8
  %76 = load i64, ptr %5, align 8
  %77 = lshr i64 %76, 44
  store i64 %77, ptr %8, align 8
  %78 = load i64, ptr %5, align 8
  %79 = and i64 %78, 17592186044415
  store i64 %79, ptr %5, align 8
  %80 = load i64, ptr %8, align 8
  %81 = load i64, ptr %6, align 8
  %82 = add i64 %81, %80
  store i64 %82, ptr %6, align 8
  %83 = load i64, ptr %6, align 8
  %84 = lshr i64 %83, 44
  store i64 %84, ptr %8, align 8
  %85 = load i64, ptr %6, align 8
  %86 = and i64 %85, 17592186044415
  store i64 %86, ptr %6, align 8
  %87 = load i64, ptr %8, align 8
  %88 = load i64, ptr %7, align 8
  %89 = add i64 %88, %87
  store i64 %89, ptr %7, align 8
  %90 = load i64, ptr %7, align 8
  %91 = lshr i64 %90, 42
  store i64 %91, ptr %8, align 8
  %92 = load i64, ptr %7, align 8
  %93 = and i64 %92, 4398046511103
  store i64 %93, ptr %7, align 8
  %94 = load i64, ptr %8, align 8
  %95 = mul i64 %94, 5
  %96 = load i64, ptr %5, align 8
  %97 = add i64 %96, %95
  store i64 %97, ptr %5, align 8
  %98 = load i64, ptr %5, align 8
  %99 = lshr i64 %98, 44
  store i64 %99, ptr %8, align 8
  %100 = load i64, ptr %5, align 8
  %101 = and i64 %100, 17592186044415
  store i64 %101, ptr %5, align 8
  %102 = load i64, ptr %8, align 8
  %103 = load i64, ptr %6, align 8
  %104 = add i64 %103, %102
  store i64 %104, ptr %6, align 8
  %105 = load i64, ptr %5, align 8
  %106 = add i64 %105, 5
  store i64 %106, ptr %9, align 8
  %107 = load i64, ptr %9, align 8
  %108 = lshr i64 %107, 44
  store i64 %108, ptr %8, align 8
  %109 = load i64, ptr %9, align 8
  %110 = and i64 %109, 17592186044415
  store i64 %110, ptr %9, align 8
  %111 = load i64, ptr %6, align 8
  %112 = load i64, ptr %8, align 8
  %113 = add i64 %111, %112
  store i64 %113, ptr %10, align 8
  %114 = load i64, ptr %10, align 8
  %115 = lshr i64 %114, 44
  store i64 %115, ptr %8, align 8
  %116 = load i64, ptr %10, align 8
  %117 = and i64 %116, 17592186044415
  store i64 %117, ptr %10, align 8
  %118 = load i64, ptr %7, align 8
  %119 = load i64, ptr %8, align 8
  %120 = add i64 %118, %119
  %121 = sub i64 %120, 4398046511104
  store i64 %121, ptr %11, align 8
  %122 = load i64, ptr %11, align 8
  %123 = lshr i64 %122, 63
  %124 = sub i64 %123, 1
  store i64 %124, ptr %14, align 8
  %125 = load i64, ptr %14, align 8
  %126 = load i64, ptr %9, align 8
  %127 = and i64 %126, %125
  store i64 %127, ptr %9, align 8
  %128 = load i64, ptr %14, align 8
  %129 = load i64, ptr %10, align 8
  %130 = and i64 %129, %128
  store i64 %130, ptr %10, align 8
  %131 = load i64, ptr %14, align 8
  %132 = load i64, ptr %11, align 8
  %133 = and i64 %132, %131
  store i64 %133, ptr %11, align 8
  %134 = load i64, ptr %14, align 8
  %135 = xor i64 %134, -1
  store i64 %135, ptr %14, align 8
  %136 = load i64, ptr %5, align 8
  %137 = load i64, ptr %14, align 8
  %138 = and i64 %136, %137
  %139 = load i64, ptr %9, align 8
  %140 = or i64 %138, %139
  store i64 %140, ptr %5, align 8
  %141 = load i64, ptr %6, align 8
  %142 = load i64, ptr %14, align 8
  %143 = and i64 %141, %142
  %144 = load i64, ptr %10, align 8
  %145 = or i64 %143, %144
  store i64 %145, ptr %6, align 8
  %146 = load i64, ptr %7, align 8
  %147 = load i64, ptr %14, align 8
  %148 = and i64 %146, %147
  %149 = load i64, ptr %11, align 8
  %150 = or i64 %148, %149
  store i64 %150, ptr %7, align 8
  %151 = load ptr, ptr %3, align 8
  %152 = getelementptr inbounds nuw %struct.poly1305_state_internal_t, ptr %151, i32 0, i32 2
  %153 = getelementptr [2 x i64], ptr %152, i64 0, i64 0
  %154 = load i64, ptr %153, align 8
  store i64 %154, ptr %12, align 8
  %155 = load ptr, ptr %3, align 8
  %156 = getelementptr inbounds nuw %struct.poly1305_state_internal_t, ptr %155, i32 0, i32 2
  %157 = getelementptr [2 x i64], ptr %156, i64 0, i64 1
  %158 = load i64, ptr %157, align 8
  store i64 %158, ptr %13, align 8
  %159 = load i64, ptr %12, align 8
  %160 = and i64 %159, 17592186044415
  %161 = load i64, ptr %5, align 8
  %162 = add i64 %161, %160
  store i64 %162, ptr %5, align 8
  %163 = load i64, ptr %5, align 8
  %164 = lshr i64 %163, 44
  store i64 %164, ptr %8, align 8
  %165 = load i64, ptr %5, align 8
  %166 = and i64 %165, 17592186044415
  store i64 %166, ptr %5, align 8
  %167 = load i64, ptr %12, align 8
  %168 = lshr i64 %167, 44
  %169 = load i64, ptr %13, align 8
  %170 = shl i64 %169, 20
  %171 = or i64 %168, %170
  %172 = and i64 %171, 17592186044415
  %173 = load i64, ptr %8, align 8
  %174 = add i64 %172, %173
  %175 = load i64, ptr %6, align 8
  %176 = add i64 %175, %174
  store i64 %176, ptr %6, align 8
  %177 = load i64, ptr %6, align 8
  %178 = lshr i64 %177, 44
  store i64 %178, ptr %8, align 8
  %179 = load i64, ptr %6, align 8
  %180 = and i64 %179, 17592186044415
  store i64 %180, ptr %6, align 8
  %181 = load i64, ptr %13, align 8
  %182 = lshr i64 %181, 24
  %183 = and i64 %182, 4398046511103
  %184 = load i64, ptr %8, align 8
  %185 = add i64 %183, %184
  %186 = load i64, ptr %7, align 8
  %187 = add i64 %186, %185
  store i64 %187, ptr %7, align 8
  %188 = load i64, ptr %7, align 8
  %189 = and i64 %188, 4398046511103
  store i64 %189, ptr %7, align 8
  %190 = load i64, ptr %5, align 8
  %191 = load i64, ptr %6, align 8
  %192 = shl i64 %191, 44
  %193 = or i64 %190, %192
  store i64 %193, ptr %5, align 8
  %194 = load i64, ptr %6, align 8
  %195 = lshr i64 %194, 20
  %196 = load i64, ptr %7, align 8
  %197 = shl i64 %196, 24
  %198 = or i64 %195, %197
  store i64 %198, ptr %6, align 8
  %199 = load ptr, ptr %4, align 8
  %200 = getelementptr i8, ptr %199, i64 0
  %201 = load i64, ptr %5, align 8
  call void @store64_le(ptr noundef %200, i64 noundef %201)
  %202 = load ptr, ptr %4, align 8
  %203 = getelementptr i8, ptr %202, i64 8
  %204 = load i64, ptr %6, align 8
  call void @store64_le(ptr noundef %203, i64 noundef %204)
  %205 = load ptr, ptr %3, align 8
  call void @sodium_memzero(ptr noundef %205, i64 noundef 96)
  call void @llvm.lifetime.end.p0(i64 8, ptr %14) #8
  call void @llvm.lifetime.end.p0(i64 8, ptr %13) #8
  call void @llvm.lifetime.end.p0(i64 8, ptr %12) #8
  call void @llvm.lifetime.end.p0(i64 8, ptr %11) #8
  call void @llvm.lifetime.end.p0(i64 8, ptr %10) #8
  call void @llvm.lifetime.end.p0(i64 8, ptr %9) #8
  call void @llvm.lifetime.end.p0(i64 8, ptr %8) #8
  call void @llvm.lifetime.end.p0(i64 8, ptr %7) #8
  call void @llvm.lifetime.end.p0(i64 8, ptr %6) #8
  call void @llvm.lifetime.end.p0(i64 8, ptr %5) #8
  ret void
}