; Function Attrs: noinline nounwind ssp uwtable
define internal fastcc void @poly1305_finish(ptr noundef %0, ptr noundef %1) unnamed_addr #4 {
  %3 = getelementptr inbounds nuw i8, ptr %0, i64 64
  %4 = load i64, ptr %3, align 8
  %.not = icmp eq i64 %4, 0
  br i1 %.not, label %12, label %5

5:                                                ; preds = %2
  %6 = getelementptr inbounds nuw i8, ptr %0, i64 72
  %7 = getelementptr [16 x i8], ptr %6, i64 0, i64 %4
  store i8 1, ptr %7, align 1
  %.090 = add i64 %4, 1
  %8 = icmp ult i64 %.090, 16
  br i1 %8, label %.lr.ph.preheader, label %._crit_edge

.lr.ph.preheader:                                 ; preds = %5
  %9 = getelementptr i8, ptr %0, i64 %4
  %scevgep = getelementptr i8, ptr %9, i64 73
  %10 = sub nsw i64 15, %4
  tail call void @llvm.memset.p0.i64(ptr align 1 %scevgep, i8 0, i64 %10, i1 false)
  br label %._crit_edge

._crit_edge:                                      ; preds = %.lr.ph.preheader, %5
  %11 = getelementptr inbounds nuw i8, ptr %0, i64 88
  store i8 1, ptr %11, align 8
  tail call fastcc void @poly1305_blocks(ptr noundef nonnull %0, ptr noundef nonnull %6, i64 noundef 16)
  br label %12

12:                                               ; preds = %._crit_edge, %2
  %13 = getelementptr inbounds nuw i8, ptr %0, i64 24
  %14 = load i64, ptr %13, align 8
  %15 = getelementptr i8, ptr %0, i64 32
  %16 = load i64, ptr %15, align 8
  %17 = getelementptr i8, ptr %0, i64 40
  %18 = load i64, ptr %17, align 8
  %19 = lshr i64 %16, 44
  %20 = and i64 %16, 17592186044415
  %21 = add i64 %18, %19
  %22 = lshr i64 %21, 42
  %23 = and i64 %21, 4398046511103
  %24 = mul nuw nsw i64 %22, 5
  %25 = add i64 %24, %14
  %26 = lshr i64 %25, 44
  %27 = and i64 %25, 17592186044415
  %28 = add nuw nsw i64 %26, %20
  %29 = lshr i64 %28, 44
  %30 = and i64 %28, 17592186044415
  %31 = add nuw nsw i64 %29, %23
  %32 = lshr i64 %31, 42
  %33 = and i64 %31, 4398046511103
  %34 = mul nuw nsw i64 %32, 5
  %35 = add nuw nsw i64 %34, %27
  %36 = lshr i64 %35, 44
  %37 = and i64 %35, 17592186044415
  %38 = add nuw nsw i64 %36, %30
  %39 = add nuw nsw i64 %37, 5
  %40 = lshr i64 %39, 44
  %41 = add nuw nsw i64 %40, %38
  %42 = lshr i64 %41, 44
  %43 = add nuw nsw i64 %42, %33
  %44 = add nsw i64 %43, -4398046511104
  %.neg = ashr i64 %44, 63
  %45 = lshr i64 %44, 63
  %46 = add nsw i64 %45, -1
  %47 = and i64 %46, 17592186044415
  %48 = and i64 %47, %39
  %49 = and i64 %47, %41
  %50 = and i64 %46, %43
  %51 = and i64 %.neg, %37
  %52 = or i64 %51, %48
  %53 = and i64 %.neg, %38
  %54 = or i64 %53, %49
  %55 = and i64 %.neg, %31
  %56 = or i64 %50, %55
  %57 = getelementptr inbounds nuw i8, ptr %0, i64 48
  %58 = load i64, ptr %57, align 8
  %59 = getelementptr i8, ptr %0, i64 56
  %60 = load i64, ptr %59, align 8
  %61 = and i64 %58, 17592186044415
  %62 = add nuw nsw i64 %52, %61
  %63 = lshr i64 %62, 44
  %64 = and i64 %62, 17592186044415
  %65 = tail call i64 @llvm.fshl.i64(i64 %60, i64 %58, i64 20)
  %66 = and i64 %65, 17592186044415
  %67 = add nuw nsw i64 %54, %66
  %68 = add nuw nsw i64 %67, %63
  %69 = lshr i64 %68, 44
  %70 = lshr i64 %60, 24
  %71 = add nuw nsw i64 %56, %70
  %72 = add nuw nsw i64 %71, %69
  %73 = shl i64 %68, 44
  %74 = or disjoint i64 %73, %64
  %75 = lshr i64 %68, 20
  %76 = and i64 %75, 16777215
  %77 = shl i64 %72, 24
  %78 = or disjoint i64 %77, %76
  store i64 %74, ptr %1, align 1
  %79 = getelementptr i8, ptr %1, i64 8
  store i64 %78, ptr %79, align 1
  tail call void @sodium_memzero(ptr noundef nonnull %0, i64 noundef 96) #8
  ret void
}